target datalayout = "e-m:e-p270:32:32-p271:32:32-p272:64:64-i64:64-i128:128-f80:128-n8:16:32:64-S128"
target triple = "x86_64-pc-linux-gnu"

@_ZN6icu_77L12kMonthCode13E = internal global ptr @.str, align 8

; Function Attrs: mustprogress uwtable
define noundef ptr @_ZNK6icu_7710CECalendar20getTemporalMonthCodeER10UErrorCode(ptr noundef nonnull align 8 dereferenceable(192) %0, ptr noundef nonnull align 4 dereferenceable(4) %1) unnamed_addr #0 align 2 {
  %3 = alloca ptr, align 8
  %4 = alloca ptr, align 8
  %5 = alloca ptr, align 8
  store ptr %0, ptr %4, align 8, !tbaa !3
  store ptr %1, ptr %5, align 8, !tbaa !10
  %6 = load ptr, ptr %4, align 8
  %7 = load ptr, ptr %5, align 8, !tbaa !10
  %8 = call noundef i32 @_ZNK6icu_778Calendar3getE19UCalendarDateFieldsR10UErrorCode(ptr noundef nonnull align 8 dereferenceable(192) %6, i32 noundef 2, ptr noundef nonnull align 4 dereferenceable(4) %7)
  %9 = icmp eq i32 %8, 12
  br i1 %9, label %10, label %12

10:                                               ; preds = %2
  %11 = load ptr, ptr @_ZN6icu_77L12kMonthCode13E, align 8, !tbaa !26
  store ptr %11, ptr %3, align 8
  br label %15

12:                                               ; preds = %2
  %13 = load ptr, ptr %5, align 8, !tbaa !10
  %14 = call noundef ptr @_ZNK6icu_778Calendar20getTemporalMonthCodeER10UErrorCode(ptr noundef nonnull align 8 dereferenceable(192) %6, ptr noundef nonnull align 4 dereferenceable(4) %13)
  store ptr %14, ptr %3, align 8
  br label %15

15:                                               ; preds = %12, %10
  %16 = load ptr, ptr %3, align 8
  ret ptr %16
}