; Function Attrs: mustprogress uwtable
define noundef ptr @_ZNK6icu_7710CECalendar20getTemporalMonthCodeER10UErrorCode(ptr noundef nonnull align 8 dereferenceable(192) %0, ptr noundef nonnull align 4 dereferenceable(4) %1) unnamed_addr #0 align 2 {
  %3 = tail call noundef i32 @_ZNK6icu_778Calendar3getE19UCalendarDateFieldsR10UErrorCode(ptr noundef nonnull align 8 dereferenceable(192) %0, i32 noundef 2, ptr noundef nonnull align 4 dereferenceable(4) %1)
  %4 = icmp eq i32 %3, 12
  br i1 %4, label %7, label %5

5:                                                ; preds = %2
  %6 = tail call noundef ptr @_ZNK6icu_778Calendar20getTemporalMonthCodeER10UErrorCode(ptr noundef nonnull align 8 dereferenceable(192) %0, ptr noundef nonnull align 4 dereferenceable(4) %1)
  br label %7

7:                                                ; preds = %2, %5
  %.0 = phi ptr [ %6, %5 ], [ @.str, %2 ]
  ret ptr %.0
}